target datalayout = "e-m:e-p270:32:32-p271:32:32-p272:64:64-i64:64-i128:128-f80:128-n8:16:32:64-S128"
target triple = "x86_64-pc-linux-gnu"

%struct.H5F_t = type { ptr, ptr, ptr, ptr, i32, ptr, i8, i8, ptr, i32 }
%struct.H5F_olist_t = type { i32, ptr, ptr, %struct.anon.8, i64, i64 }
%struct.anon.8 = type { i8, %union.anon.9 }
%union.anon.9 = type { ptr }

@.str.2 = private unnamed_addr constant [100 x i8] c"generated/home/dtcxzyw/WorkSpace/Projects/compilers/llvm-opt-benchmark/bench/hdf5/hdf5/src/H5Fint.c\00", align 1
@H5E_FILE_g = external global i64, align 8
@H5E_BADITER_g = external global i64, align 8
@__func__.H5F__get_objects = private unnamed_addr constant [17 x i8] c"H5F__get_objects\00", align 1
@.str.183 = private unnamed_addr constant [20 x i8] c"iteration failed(1)\00", align 1
@.str.184 = private unnamed_addr constant [20 x i8] c"iteration failed(2)\00", align 1
@.str.185 = private unnamed_addr constant [20 x i8] c"iteration failed(3)\00", align 1
@.str.186 = private unnamed_addr constant [20 x i8] c"iteration failed(4)\00", align 1
@.str.187 = private unnamed_addr constant [20 x i8] c"iteration failed(5)\00", align 1

; Function Attrs: nounwind uwtable
define internal i32 @H5F__get_objects(ptr noundef %0, i32 noundef %1, i64 noundef %2, ptr noundef %3, i1 noundef zeroext %4, ptr noundef %5) #0 {
  %7 = alloca ptr, align 8
  %8 = alloca i32, align 4
  %9 = alloca i64, align 8
  %10 = alloca ptr, align 8
  %11 = alloca i8, align 1
  %12 = alloca ptr, align 8
  %13 = alloca i64, align 8
  %14 = alloca %struct.H5F_olist_t, align 8
  %15 = alloca i32, align 4
  %16 = alloca i8, align 1
  store ptr %0, ptr %7, align 8
  store i32 %1, ptr %8, align 4
  store i64 %2, ptr %9, align 8
  store ptr %3, ptr %10, align 8
  %17 = zext i1 %4 to i8
  store i8 %17, ptr %11, align 1
  store ptr %5, ptr %12, align 8
  store i64 0, ptr %13, align 8
  store i32 0, ptr %15, align 4
  store i8 0, ptr %16, align 1
  %18 = load i64, ptr %9, align 8
  %19 = icmp eq i64 %18, 0
  br i1 %19, label %20, label %21

20:                                               ; preds = %6
  br label %23

21:                                               ; preds = %6
  %22 = load ptr, ptr %10, align 8
  br label %23

23:                                               ; preds = %21, %20
  %24 = phi ptr [ null, %20 ], [ %22, %21 ]
  %25 = getelementptr inbounds %struct.H5F_olist_t, ptr %14, i32 0, i32 1
  store ptr %24, ptr %25, align 8
  %26 = getelementptr inbounds %struct.H5F_olist_t, ptr %14, i32 0, i32 2
  store ptr %13, ptr %26, align 8
  %27 = getelementptr inbounds %struct.H5F_olist_t, ptr %14, i32 0, i32 4
  store i64 0, ptr %27, align 8
  %28 = load i64, ptr %9, align 8
  %29 = getelementptr inbounds %struct.H5F_olist_t, ptr %14, i32 0, i32 5
  store i64 %28, ptr %29, align 8
  %30 = load i32, ptr %8, align 4
  %31 = and i32 %30, 32
  %32 = icmp ne i32 %31, 0
  br i1 %32, label %33, label %39

33:                                               ; preds = %23
  %34 = getelementptr inbounds %struct.H5F_olist_t, ptr %14, i32 0, i32 3
  %35 = getelementptr inbounds %struct.anon.8, ptr %34, i32 0, i32 0
  store i8 1, ptr %35, align 8
  %36 = load ptr, ptr %7, align 8
  %37 = getelementptr inbounds %struct.H5F_olist_t, ptr %14, i32 0, i32 3
  %38 = getelementptr inbounds %struct.anon.8, ptr %37, i32 0, i32 1
  store ptr %36, ptr %38, align 8
  br label %53

39:                                               ; preds = %23
  %40 = getelementptr inbounds %struct.H5F_olist_t, ptr %14, i32 0, i32 3
  %41 = getelementptr inbounds %struct.anon.8, ptr %40, i32 0, i32 0
  store i8 0, ptr %41, align 8
  %42 = load ptr, ptr %7, align 8
  %43 = icmp ne ptr %42, null
  br i1 %43, label %44, label %48

44:                                               ; preds = %39
  %45 = load ptr, ptr %7, align 8
  %46 = getelementptr inbounds %struct.H5F_t, ptr %45, i32 0, i32 2
  %47 = load ptr, ptr %46, align 8
  br label %49

48:                                               ; preds = %39
  br label %49

49:                                               ; preds = %48, %44
  %50 = phi ptr [ %47, %44 ], [ null, %48 ]
  %51 = getelementptr inbounds %struct.H5F_olist_t, ptr %14, i32 0, i32 3
  %52 = getelementptr inbounds %struct.anon.8, ptr %51, i32 0, i32 1
  store ptr %50, ptr %52, align 8
  br label %53

53:                                               ; preds = %49, %33
  %54 = load i32, ptr %8, align 4
  %55 = and i32 %54, 1
  %56 = icmp ne i32 %55, 0
  br i1 %56, label %57, label %79

57:                                               ; preds = %53
  %58 = getelementptr inbounds %struct.H5F_olist_t, ptr %14, i32 0, i32 0
  store i32 1, ptr %58, align 8
  %59 = load i8, ptr %11, align 1
  %60 = trunc i8 %59 to i1
  %61 = call i32 @H5I_iterate(i32 noundef 1, ptr noundef @H5F__get_objects_cb, ptr noundef %14, i1 noundef zeroext %60)
  %62 = icmp slt i32 %61, 0
  br i1 %62, label %63, label %78

63:                                               ; preds = %57
  br label %64

64:                                               ; preds = %63
  br label %65

65:                                               ; preds = %64
  br label %66

66:                                               ; preds = %65
  %67 = load i64, ptr @H5E_FILE_g, align 8
  %68 = load i64, ptr @H5E_BADITER_g, align 8
  %69 = call i32 (ptr, ptr, i32, i64, i64, ptr, ...) @H5E_printf_stack(ptr noundef @.str.2, ptr noundef @__func__.H5F__get_objects, i32 noundef 574, i64 noundef %67, i64 noundef %68, ptr noundef @.str.183)
  br label %70

70:                                               ; preds = %66
  store i8 1, ptr %16, align 1
  %71 = load i8, ptr %16, align 1
  %72 = trunc i8 %71 to i1
  %73 = zext i1 %72 to i8
  store i8 %73, ptr %16, align 1
  br label %74

74:                                               ; preds = %70
  br label %75

75:                                               ; preds = %74
  store i32 -1, ptr %15, align 4
  br label %246

76:                                               ; No predecessors!
  br label %77

77:                                               ; preds = %76
  br label %78

78:                                               ; preds = %77, %57
  br label %79

79:                                               ; preds = %78, %53
  %80 = getelementptr inbounds %struct.H5F_olist_t, ptr %14, i32 0, i32 5
  %81 = load i64, ptr %80, align 8
  %82 = icmp ne i64 %81, 0
  br i1 %82, label %83, label %93

83:                                               ; preds = %79
  %84 = getelementptr inbounds %struct.H5F_olist_t, ptr %14, i32 0, i32 5
  %85 = load i64, ptr %84, align 8
  %86 = icmp ne i64 %85, 0
  br i1 %86, label %87, label %120

87:                                               ; preds = %83
  %88 = getelementptr inbounds %struct.H5F_olist_t, ptr %14, i32 0, i32 4
  %89 = load i64, ptr %88, align 8
  %90 = getelementptr inbounds %struct.H5F_olist_t, ptr %14, i32 0, i32 5
  %91 = load i64, ptr %90, align 8
  %92 = icmp ult i64 %89, %91
  br i1 %92, label %93, label %120

93:                                               ; preds = %87, %79
  %94 = load i32, ptr %8, align 4
  %95 = and i32 %94, 2
  %96 = icmp ne i32 %95, 0
  br i1 %96, label %97, label %119

97:                                               ; preds = %93
  %98 = getelementptr inbounds %struct.H5F_olist_t, ptr %14, i32 0, i32 0
  store i32 5, ptr %98, align 8
  %99 = load i8, ptr %11, align 1
  %100 = trunc i8 %99 to i1
  %101 = call i32 @H5I_iterate(i32 noundef 5, ptr noundef @H5F__get_objects_cb, ptr noundef %14, i1 noundef zeroext %100)
  %102 = icmp slt i32 %101, 0
  br i1 %102, label %103, label %118

103:                                              ; preds = %97
  br label %104

104:                                              ; preds = %103
  br label %105

105:                                              ; preds = %104
  br label %106

106:                                              ; preds = %105
  %107 = load i64, ptr @H5E_FILE_g, align 8
  %108 = load i64, ptr @H5E_BADITER_g, align 8
  %109 = call i32 (ptr, ptr, i32, i64, i64, ptr, ...) @H5E_printf_stack(ptr noundef @.str.2, ptr noundef @__func__.H5F__get_objects, i32 noundef 585, i64 noundef %107, i64 noundef %108, ptr noundef @.str.184)
  br label %110

110:                                              ; preds = %106
  store i8 1, ptr %16, align 1
  %111 = load i8, ptr %16, align 1
  %112 = trunc i8 %111 to i1
  %113 = zext i1 %112 to i8
  store i8 %113, ptr %16, align 1
  br label %114

114:                                              ; preds = %110
  br label %115

115:                                              ; preds = %114
  store i32 -1, ptr %15, align 4
  br label %246

116:                                              ; No predecessors!
  br label %117

117:                                              ; preds = %116
  br label %118

118:                                              ; preds = %117, %97
  br label %119

119:                                              ; preds = %118, %93
  br label %120

120:                                              ; preds = %119, %87, %83
  %121 = getelementptr inbounds %struct.H5F_olist_t, ptr %14, i32 0, i32 5
  %122 = load i64, ptr %121, align 8
  %123 = icmp ne i64 %122, 0
  br i1 %123, label %124, label %134

124:                                              ; preds = %120
  %125 = getelementptr inbounds %struct.H5F_olist_t, ptr %14, i32 0, i32 5
  %126 = load i64, ptr %125, align 8
  %127 = icmp ne i64 %126, 0
  br i1 %127, label %128, label %161

128:                                              ; preds = %124
  %129 = getelementptr inbounds %struct.H5F_olist_t, ptr %14, i32 0, i32 4
  %130 = load i64, ptr %129, align 8
  %131 = getelementptr inbounds %struct.H5F_olist_t, ptr %14, i32 0, i32 5
  %132 = load i64, ptr %131, align 8
  %133 = icmp ult i64 %130, %132
  br i1 %133, label %134, label %161

134:                                              ; preds = %128, %120
  %135 = load i32, ptr %8, align 4
  %136 = and i32 %135, 4
  %137 = icmp ne i32 %136, 0
  br i1 %137, label %138, label %160

138:                                              ; preds = %134
  %139 = getelementptr inbounds %struct.H5F_olist_t, ptr %14, i32 0, i32 0
  store i32 2, ptr %139, align 8
  %140 = load i8, ptr %11, align 1
  %141 = trunc i8 %140 to i1
  %142 = call i32 @H5I_iterate(i32 noundef 2, ptr noundef @H5F__get_objects_cb, ptr noundef %14, i1 noundef zeroext %141)
  %143 = icmp slt i32 %142, 0
  br i1 %143, label %144, label %159

144:                                              ; preds = %138
  br label %145

145:                                              ; preds = %144
  br label %146

146:                                              ; preds = %145
  br label %147

147:                                              ; preds = %146
  %148 = load i64, ptr @H5E_FILE_g, align 8
  %149 = load i64, ptr @H5E_BADITER_g, align 8
  %150 = call i32 (ptr, ptr, i32, i64, i64, ptr, ...) @H5E_printf_stack(ptr noundef @.str.2, ptr noundef @__func__.H5F__get_objects, i32 noundef 597, i64 noundef %148, i64 noundef %149, ptr noundef @.str.185)
  br label %151

151:                                              ; preds = %147
  store i8 1, ptr %16, align 1
  %152 = load i8, ptr %16, align 1
  %153 = trunc i8 %152 to i1
  %154 = zext i1 %153 to i8
  store i8 %154, ptr %16, align 1
  br label %155

155:                                              ; preds = %151
  br label %156

156:                                              ; preds = %155
  store i32 -1, ptr %15, align 4
  br label %246

157:                                              ; No predecessors!
  br label %158

158:                                              ; preds = %157
  br label %159

159:                                              ; preds = %158, %138
  br label %160

160:                                              ; preds = %159, %134
  br label %161

161:                                              ; preds = %160, %128, %124
  %162 = getelementptr inbounds %struct.H5F_olist_t, ptr %14, i32 0, i32 5
  %163 = load i64, ptr %162, align 8
  %164 = icmp ne i64 %163, 0
  br i1 %164, label %165, label %175

165:                                              ; preds = %161
  %166 = getelementptr inbounds %struct.H5F_olist_t, ptr %14, i32 0, i32 5
  %167 = load i64, ptr %166, align 8
  %168 = icmp ne i64 %167, 0
  br i1 %168, label %169, label %202

169:                                              ; preds = %165
  %170 = getelementptr inbounds %struct.H5F_olist_t, ptr %14, i32 0, i32 4
  %171 = load i64, ptr %170, align 8
  %172 = getelementptr inbounds %struct.H5F_olist_t, ptr %14, i32 0, i32 5
  %173 = load i64, ptr %172, align 8
  %174 = icmp ult i64 %171, %173
  br i1 %174, label %175, label %202

175:                                              ; preds = %169, %161
  %176 = load i32, ptr %8, align 4
  %177 = and i32 %176, 8
  %178 = icmp ne i32 %177, 0
  br i1 %178, label %179, label %201

179:                                              ; preds = %175
  %180 = getelementptr inbounds %struct.H5F_olist_t, ptr %14, i32 0, i32 0
  store i32 3, ptr %180, align 8
  %181 = load i8, ptr %11, align 1
  %182 = trunc i8 %181 to i1
  %183 = call i32 @H5I_iterate(i32 noundef 3, ptr noundef @H5F__get_objects_cb, ptr noundef %14, i1 noundef zeroext %182)
  %184 = icmp slt i32 %183, 0
  br i1 %184, label %185, label %200

185:                                              ; preds = %179
  br label %186

186:                                              ; preds = %185
  br label %187

187:                                              ; preds = %186
  br label %188

188:                                              ; preds = %187
  %189 = load i64, ptr @H5E_FILE_g, align 8
  %190 = load i64, ptr @H5E_BADITER_g, align 8
  %191 = call i32 (ptr, ptr, i32, i64, i64, ptr, ...) @H5E_printf_stack(ptr noundef @.str.2, ptr noundef @__func__.H5F__get_objects, i32 noundef 609, i64 noundef %189, i64 noundef %190, ptr noundef @.str.186)
  br label %192

192:                                              ; preds = %188
  store i8 1, ptr %16, align 1
  %193 = load i8, ptr %16, align 1
  %194 = trunc i8 %193 to i1
  %195 = zext i1 %194 to i8
  store i8 %195, ptr %16, align 1
  br label %196

196:                                              ; preds = %192
  br label %197

197:                                              ; preds = %196
  store i32 -1, ptr %15, align 4
  br label %246

198:                                              ; No predecessors!
  br label %199

199:                                              ; preds = %198
  br label %200

200:                                              ; preds = %199, %179
  br label %201

201:                                              ; preds = %200, %175
  br label %202

202:                                              ; preds = %201, %169, %165
  %203 = getelementptr inbounds %struct.H5F_olist_t, ptr %14, i32 0, i32 5
  %204 = load i64, ptr %203, align 8
  %205 = icmp ne i64 %204, 0
  br i1 %205, label %206, label %216

206:                                              ; preds = %202
  %207 = getelementptr inbounds %struct.H5F_olist_t, ptr %14, i32 0, i32 5
  %208 = load i64, ptr %207, align 8
  %209 = icmp ne i64 %208, 0
  br i1 %209, label %210, label %243

210:                                              ; preds = %206
  %211 = getelementptr inbounds %struct.H5F_olist_t, ptr %14, i32 0, i32 4
  %212 = load i64, ptr %211, align 8
  %213 = getelementptr inbounds %struct.H5F_olist_t, ptr %14, i32 0, i32 5
  %214 = load i64, ptr %213, align 8
  %215 = icmp ult i64 %212, %214
  br i1 %215, label %216, label %243

216:                                              ; preds = %210, %202
  %217 = load i32, ptr %8, align 4
  %218 = and i32 %217, 16
  %219 = icmp ne i32 %218, 0
  br i1 %219, label %220, label %242

220:                                              ; preds = %216
  %221 = getelementptr inbounds %struct.H5F_olist_t, ptr %14, i32 0, i32 0
  store i32 7, ptr %221, align 8
  %222 = load i8, ptr %11, align 1
  %223 = trunc i8 %222 to i1
  %224 = call i32 @H5I_iterate(i32 noundef 7, ptr noundef @H5F__get_objects_cb, ptr noundef %14, i1 noundef zeroext %223)
  %225 = icmp slt i32 %224, 0
  br i1 %225, label %226, label %241

226:                                              ; preds = %220
  br label %227

227:                                              ; preds = %226
  br label %228

228:                                              ; preds = %227
  br label %229

229:                                              ; preds = %228
  %230 = load i64, ptr @H5E_FILE_g, align 8
  %231 = load i64, ptr @H5E_BADITER_g, align 8
  %232 = call i32 (ptr, ptr, i32, i64, i64, ptr, ...) @H5E_printf_stack(ptr noundef @.str.2, ptr noundef @__func__.H5F__get_objects, i32 noundef 621, i64 noundef %230, i64 noundef %231, ptr noundef @.str.187)
  br label %233

233:                                              ; preds = %229
  store i8 1, ptr %16, align 1
  %234 = load i8, ptr %16, align 1
  %235 = trunc i8 %234 to i1
  %236 = zext i1 %235 to i8
  store i8 %236, ptr %16, align 1
  br label %237

237:                                              ; preds = %233
  br label %238

238:                                              ; preds = %237
  store i32 -1, ptr %15, align 4
  br label %246

239:                                              ; No predecessors!
  br label %240

240:                                              ; preds = %239
  br label %241

241:                                              ; preds = %240, %220
  br label %242

242:                                              ; preds = %241, %216
  br label %243

243:                                              ; preds = %242, %210, %206
  %244 = load i64, ptr %13, align 8
  %245 = load ptr, ptr %12, align 8
  store i64 %244, ptr %245, align 8
  br label %246

246:                                              ; preds = %243, %238, %197, %156, %115, %75
  %247 = load i32, ptr %15, align 4
  ret i32 %247
}