; Function Attrs: nounwind uwtable
define internal fastcc range(i32 -1, 1) i32 @H5F__get_objects(ptr noundef %0, i32 noundef %1, i64 noundef %2, ptr noundef %3, i1 noundef zeroext %4, ptr nocapture noundef writeonly %5) unnamed_addr #0 {
  %7 = alloca i64, align 8
  %8 = alloca %struct.H5F_olist_t, align 8
  store i64 0, ptr %7, align 8
  %9 = icmp eq i64 %2, 0
  %10 = select i1 %9, ptr null, ptr %3
  %11 = getelementptr inbounds i8, ptr %8, i64 8
  store ptr %10, ptr %11, align 8
  %12 = getelementptr inbounds i8, ptr %8, i64 16
  store ptr %7, ptr %12, align 8
  %13 = getelementptr inbounds i8, ptr %8, i64 40
  store i64 0, ptr %13, align 8
  %14 = getelementptr inbounds i8, ptr %8, i64 48
  store i64 %2, ptr %14, align 8
  %15 = and i32 %1, 32
  %.not = icmp eq i32 %15, 0
  %16 = getelementptr inbounds i8, ptr %8, i64 24
  br i1 %.not, label %18, label %17

17:                                               ; preds = %6
  store i8 1, ptr %16, align 8
  br label %22

18:                                               ; preds = %6
  store i8 0, ptr %16, align 8
  %.not28 = icmp eq ptr %0, null
  br i1 %.not28, label %22, label %19

19:                                               ; preds = %18
  %20 = getelementptr inbounds i8, ptr %0, i64 16
  %21 = load ptr, ptr %20, align 8
  br label %22

22:                                               ; preds = %19, %18, %17
  %.sink = phi ptr [ %0, %17 ], [ %21, %19 ], [ null, %18 ]
  %23 = getelementptr inbounds i8, ptr %8, i64 32
  store ptr %.sink, ptr %23, align 8
  %24 = and i32 %1, 1
  %.not29 = icmp eq i32 %24, 0
  br i1 %.not29, label %33, label %25

25:                                               ; preds = %22
  store i32 1, ptr %8, align 8
  %26 = call i32 @H5I_iterate(i32 noundef 1, ptr noundef nonnull @H5F__get_objects_cb, ptr noundef nonnull %8, i1 noundef zeroext %4) #22
  %27 = icmp slt i32 %26, 0
  br i1 %27, label %29, label %._crit_edge

._crit_edge:                                      ; preds = %25
  %.pre = load i64, ptr %14, align 8
  %.pre53 = load i64, ptr %13, align 8
  %28 = freeze i64 %.pre53
  br label %33

29:                                               ; preds = %25
  %30 = load i64, ptr @H5E_FILE_g, align 8
  %31 = load i64, ptr @H5E_BADITER_g, align 8
  %32 = call i32 (ptr, ptr, i32, i64, i64, ptr, ...) @H5E_printf_stack(ptr noundef nonnull @.str.2, ptr noundef nonnull @__func__.H5F__get_objects, i32 noundef 574, i64 noundef %30, i64 noundef %31, ptr noundef nonnull @.str.183) #22
  br label %74

33:                                               ; preds = %._crit_edge, %22
  %34 = phi i64 [ %28, %._crit_edge ], [ 0, %22 ]
  %35 = phi i64 [ %.pre, %._crit_edge ], [ %2, %22 ]
  %36 = add i64 %35, -1
  %or.cond.not49 = icmp ult i64 %36, %34
  %37 = and i32 %1, 2
  %.not31 = icmp eq i32 %37, 0
  %or.cond39 = or i1 %.not31, %or.cond.not49
  br i1 %or.cond39, label %45, label %38

38:                                               ; preds = %33
  store i32 5, ptr %8, align 8
  %39 = call i32 @H5I_iterate(i32 noundef 5, ptr noundef nonnull @H5F__get_objects_cb, ptr noundef nonnull %8, i1 noundef zeroext %4) #22
  %40 = icmp slt i32 %39, 0
  br i1 %40, label %41, label %._crit_edge54

._crit_edge54:                                    ; preds = %38
  %.pre55 = load i64, ptr %14, align 8
  %.pre56 = load i64, ptr %13, align 8
  %.pre63 = freeze i64 %.pre56
  %.pre64 = add i64 %.pre55, -1
  br label %45

41:                                               ; preds = %38
  %42 = load i64, ptr @H5E_FILE_g, align 8
  %43 = load i64, ptr @H5E_BADITER_g, align 8
  %44 = call i32 (ptr, ptr, i32, i64, i64, ptr, ...) @H5E_printf_stack(ptr noundef nonnull @.str.2, ptr noundef nonnull @__func__.H5F__get_objects, i32 noundef 585, i64 noundef %42, i64 noundef %43, ptr noundef nonnull @.str.184) #22
  br label %74

45:                                               ; preds = %._crit_edge54, %33
  %.pre-phi65 = phi i64 [ %.pre64, %._crit_edge54 ], [ %36, %33 ]
  %.pre-phi = phi i64 [ %.pre63, %._crit_edge54 ], [ %34, %33 ]
  %or.cond41.not50 = icmp ult i64 %.pre-phi65, %.pre-phi
  %46 = and i32 %1, 4
  %.not33 = icmp eq i32 %46, 0
  %or.cond42 = or i1 %.not33, %or.cond41.not50
  br i1 %or.cond42, label %54, label %47

47:                                               ; preds = %45
  store i32 2, ptr %8, align 8
  %48 = call i32 @H5I_iterate(i32 noundef 2, ptr noundef nonnull @H5F__get_objects_cb, ptr noundef nonnull %8, i1 noundef zeroext %4) #22
  %49 = icmp slt i32 %48, 0
  br i1 %49, label %50, label %._crit_edge57

._crit_edge57:                                    ; preds = %47
  %.pre58 = load i64, ptr %14, align 8
  %.pre59 = load i64, ptr %13, align 8
  %.pre66 = freeze i64 %.pre59
  %.pre68 = add i64 %.pre58, -1
  br label %54

50:                                               ; preds = %47
  %51 = load i64, ptr @H5E_FILE_g, align 8
  %52 = load i64, ptr @H5E_BADITER_g, align 8
  %53 = call i32 (ptr, ptr, i32, i64, i64, ptr, ...) @H5E_printf_stack(ptr noundef nonnull @.str.2, ptr noundef nonnull @__func__.H5F__get_objects, i32 noundef 597, i64 noundef %51, i64 noundef %52, ptr noundef nonnull @.str.185) #22
  br label %74

54:                                               ; preds = %._crit_edge57, %45
  %.pre-phi69 = phi i64 [ %.pre68, %._crit_edge57 ], [ %.pre-phi65, %45 ]
  %.pre-phi67 = phi i64 [ %.pre66, %._crit_edge57 ], [ %.pre-phi, %45 ]
  %or.cond44.not51 = icmp ult i64 %.pre-phi69, %.pre-phi67
  %55 = and i32 %1, 8
  %.not35 = icmp eq i32 %55, 0
  %or.cond45 = or i1 %.not35, %or.cond44.not51
  br i1 %or.cond45, label %63, label %56

56:                                               ; preds = %54
  store i32 3, ptr %8, align 8
  %57 = call i32 @H5I_iterate(i32 noundef 3, ptr noundef nonnull @H5F__get_objects_cb, ptr noundef nonnull %8, i1 noundef zeroext %4) #22
  %58 = icmp slt i32 %57, 0
  br i1 %58, label %59, label %._crit_edge60

._crit_edge60:                                    ; preds = %56
  %.pre61 = load i64, ptr %14, align 8
  %.pre62 = load i64, ptr %13, align 8
  %.pre70 = freeze i64 %.pre62
  %.pre72 = add i64 %.pre61, -1
  br label %63

59:                                               ; preds = %56
  %60 = load i64, ptr @H5E_FILE_g, align 8
  %61 = load i64, ptr @H5E_BADITER_g, align 8
  %62 = call i32 (ptr, ptr, i32, i64, i64, ptr, ...) @H5E_printf_stack(ptr noundef nonnull @.str.2, ptr noundef nonnull @__func__.H5F__get_objects, i32 noundef 609, i64 noundef %60, i64 noundef %61, ptr noundef nonnull @.str.186) #22
  br label %74

63:                                               ; preds = %._crit_edge60, %54
  %.pre-phi73 = phi i64 [ %.pre72, %._crit_edge60 ], [ %.pre-phi69, %54 ]
  %.pre-phi71 = phi i64 [ %.pre70, %._crit_edge60 ], [ %.pre-phi67, %54 ]
  %or.cond47.not52 = icmp ult i64 %.pre-phi73, %.pre-phi71
  %64 = and i32 %1, 16
  %.not37 = icmp eq i32 %64, 0
  %or.cond48 = or i1 %.not37, %or.cond47.not52
  br i1 %or.cond48, label %72, label %65

65:                                               ; preds = %63
  store i32 7, ptr %8, align 8
  %66 = call i32 @H5I_iterate(i32 noundef 7, ptr noundef nonnull @H5F__get_objects_cb, ptr noundef nonnull %8, i1 noundef zeroext %4) #22
  %67 = icmp slt i32 %66, 0
  br i1 %67, label %68, label %72

68:                                               ; preds = %65
  %69 = load i64, ptr @H5E_FILE_g, align 8
  %70 = load i64, ptr @H5E_BADITER_g, align 8
  %71 = call i32 (ptr, ptr, i32, i64, i64, ptr, ...) @H5E_printf_stack(ptr noundef nonnull @.str.2, ptr noundef nonnull @__func__.H5F__get_objects, i32 noundef 621, i64 noundef %69, i64 noundef %70, ptr noundef nonnull @.str.187) #22
  br label %74

72:                                               ; preds = %63, %65
  %73 = load i64, ptr %7, align 8
  store i64 %73, ptr %5, align 8
  br label %74

74:                                               ; preds = %72, %68, %59, %50, %41, %29
  %.0 = phi i32 [ -1, %29 ], [ -1, %41 ], [ -1, %50 ], [ -1, %59 ], [ -1, %68 ], [ 0, %72 ]
  ret i32 %.0
}